target datalayout = "e-m:e-p270:32:32-p271:32:32-p272:64:64-i64:64-i128:128-f80:128-n8:16:32:64-S128"
target triple = "x86_64-pc-linux-gnu"

%struct.fstWriterContext = type { ptr, ptr, ptr, ptr, ptr, ptr, ptr, i64, ptr, ptr, ptr, i32, ptr, i32, i32, i32, i8, i64, i64, i32, i32, i64, i64, i32, i32, i32, i64, i32, double, ptr, ptr, i32, i64, i8, i8, i8, i8, i8, i64, i64, i64, i64, i64, i32, ptr, i32, i8, ptr, ptr, ptr, ptr, i32 }

@stderr = external global ptr, align 8
@.str.17 = private unnamed_addr constant [74 x i8] c"FSTAPI  | Could not realloc() in fstWriterEmitValueChangeVec64, exiting.\0A\00", align 1

; Function Attrs: mustprogress uwtable
define void @fstWriterEmitValueChangeVec64(ptr noundef %0, i32 noundef %1, i32 noundef %2, ptr noundef %3) #0 {
  %5 = alloca ptr, align 8
  %6 = alloca i32, align 4
  %7 = alloca i32, align 4
  %8 = alloca ptr, align 8
  %9 = alloca ptr, align 8
  %10 = alloca i32, align 4
  %11 = alloca i32, align 4
  %12 = alloca i32, align 4
  %13 = alloca i32, align 4
  %14 = alloca i32, align 4
  %15 = alloca ptr, align 8
  store ptr %0, ptr %5, align 8, !tbaa !50
  store i32 %1, ptr %6, align 4, !tbaa !11
  store i32 %2, ptr %7, align 4, !tbaa !11
  store ptr %3, ptr %8, align 8, !tbaa !139
  call void @llvm.lifetime.start.p0(i64 8, ptr %9) #15
  %16 = load ptr, ptr %5, align 8, !tbaa !50
  store ptr %16, ptr %9, align 8, !tbaa !13
  %17 = load i32, ptr %7, align 4, !tbaa !11
  %18 = icmp ule i32 %17, 64
  %19 = xor i1 %18, true
  %20 = xor i1 %19, true
  %21 = zext i1 %20 to i64
  %22 = call i64 @llvm.expect.i64(i64 %21, i64 0)
  %23 = icmp ne i64 %22, 0
  br i1 %23, label %24, label %31

24:                                               ; preds = %4
  %25 = load ptr, ptr %5, align 8, !tbaa !50
  %26 = load i32, ptr %6, align 4, !tbaa !11
  %27 = load i32, ptr %7, align 4, !tbaa !11
  %28 = load ptr, ptr %8, align 8, !tbaa !139
  %29 = getelementptr inbounds i64, ptr %28, i64 0
  %30 = load i64, ptr %29, align 8, !tbaa !35
  call void @fstWriterEmitValueChange64(ptr noundef %25, i32 noundef %26, i32 noundef %27, i64 noundef %30)
  br label %183

31:                                               ; preds = %4
  %32 = load ptr, ptr %9, align 8, !tbaa !13
  %33 = icmp ne ptr %32, null
  %34 = xor i1 %33, true
  %35 = xor i1 %34, true
  %36 = zext i1 %35 to i64
  %37 = call i64 @llvm.expect.i64(i64 %36, i64 1)
  %38 = icmp ne i64 %37, 0
  br i1 %38, label %39, label %182

39:                                               ; preds = %31
  call void @llvm.lifetime.start.p0(i64 4, ptr %10) #15
  %40 = load i32, ptr %7, align 4, !tbaa !11
  %41 = udiv i32 %40, 64
  store i32 %41, ptr %10, align 4, !tbaa !11
  call void @llvm.lifetime.start.p0(i64 4, ptr %11) #15
  %42 = load i32, ptr %7, align 4, !tbaa !11
  %43 = and i32 %42, 63
  store i32 %43, ptr %11, align 4, !tbaa !11
  call void @llvm.lifetime.start.p0(i64 4, ptr %12) #15
  call void @llvm.lifetime.start.p0(i64 4, ptr %13) #15
  call void @llvm.lifetime.start.p0(i64 4, ptr %14) #15
  call void @llvm.lifetime.start.p0(i64 8, ptr %15) #15
  %44 = load i32, ptr %7, align 4, !tbaa !11
  %45 = load ptr, ptr %9, align 8, !tbaa !13
  %46 = getelementptr inbounds nuw %struct.fstWriterContext, ptr %45, i32 0, i32 11
  %47 = load i32, ptr %46, align 8, !tbaa !61
  %48 = icmp ugt i32 %44, %47
  %49 = xor i1 %48, true
  %50 = xor i1 %49, true
  %51 = zext i1 %50 to i64
  %52 = call i64 @llvm.expect.i64(i64 %51, i64 0)
  %53 = icmp ne i64 %52, 0
  br i1 %53, label %54, label %84

54:                                               ; preds = %39
  %55 = load i32, ptr %7, align 4, !tbaa !11
  %56 = mul i32 %55, 2
  %57 = add i32 %56, 1
  %58 = load ptr, ptr %9, align 8, !tbaa !13
  %59 = getelementptr inbounds nuw %struct.fstWriterContext, ptr %58, i32 0, i32 11
  store i32 %57, ptr %59, align 8, !tbaa !61
  %60 = load ptr, ptr %9, align 8, !tbaa !13
  %61 = getelementptr inbounds nuw %struct.fstWriterContext, ptr %60, i32 0, i32 10
  %62 = load ptr, ptr %61, align 8, !tbaa !60
  %63 = load ptr, ptr %9, align 8, !tbaa !13
  %64 = getelementptr inbounds nuw %struct.fstWriterContext, ptr %63, i32 0, i32 11
  %65 = load i32, ptr %64, align 8, !tbaa !61
  %66 = zext i32 %65 to i64
  %67 = call ptr @realloc(ptr noundef %62, i64 noundef %66) #20
  %68 = load ptr, ptr %9, align 8, !tbaa !13
  %69 = getelementptr inbounds nuw %struct.fstWriterContext, ptr %68, i32 0, i32 10
  store ptr %67, ptr %69, align 8, !tbaa !60
  %70 = load ptr, ptr %9, align 8, !tbaa !13
  %71 = getelementptr inbounds nuw %struct.fstWriterContext, ptr %70, i32 0, i32 10
  %72 = load ptr, ptr %71, align 8, !tbaa !60
  %73 = icmp ne ptr %72, null
  %74 = xor i1 %73, true
  %75 = xor i1 %74, true
  %76 = xor i1 %75, true
  %77 = zext i1 %76 to i64
  %78 = call i64 @llvm.expect.i64(i64 %77, i64 0)
  %79 = icmp ne i64 %78, 0
  br i1 %79, label %80, label %83

80:                                               ; preds = %54
  %81 = load ptr, ptr @stderr, align 8, !tbaa !33
  %82 = call i32 (ptr, ptr, ...) @fprintf(ptr noundef %81, ptr noundef @.str.17) #15
  call void @exit(i32 noundef 255) #21
  unreachable

83:                                               ; preds = %54
  br label %84

84:                                               ; preds = %83, %39
  %85 = load ptr, ptr %9, align 8, !tbaa !13
  %86 = getelementptr inbounds nuw %struct.fstWriterContext, ptr %85, i32 0, i32 10
  %87 = load ptr, ptr %86, align 8, !tbaa !60
  store ptr %87, ptr %15, align 8, !tbaa !6
  %88 = load i32, ptr %10, align 4, !tbaa !11
  store i32 %88, ptr %13, align 4, !tbaa !11
  %89 = load ptr, ptr %8, align 8, !tbaa !139
  %90 = load i32, ptr %13, align 4, !tbaa !11
  %91 = sext i32 %90 to i64
  %92 = getelementptr inbounds i64, ptr %89, i64 %91
  %93 = load i64, ptr %92, align 8, !tbaa !35
  %94 = trunc i64 %93 to i32
  store i32 %94, ptr %14, align 4, !tbaa !11
  store i32 0, ptr %12, align 4, !tbaa !11
  br label %95

95:                                               ; preds = %111, %84
  %96 = load i32, ptr %12, align 4, !tbaa !11
  %97 = load i32, ptr %11, align 4, !tbaa !11
  %98 = icmp slt i32 %96, %97
  br i1 %98, label %99, label %114

99:                                               ; preds = %95
  %100 = load i32, ptr %14, align 4, !tbaa !11
  %101 = load i32, ptr %11, align 4, !tbaa !11
  %102 = load i32, ptr %12, align 4, !tbaa !11
  %103 = sub nsw i32 %101, %102
  %104 = sub nsw i32 %103, 1
  %105 = lshr i32 %100, %104
  %106 = and i32 %105, 1
  %107 = add i32 48, %106
  %108 = trunc i32 %107 to i8
  %109 = load ptr, ptr %15, align 8, !tbaa !6
  %110 = getelementptr inbounds nuw i8, ptr %109, i32 1
  store ptr %110, ptr %15, align 8, !tbaa !6
  store i8 %108, ptr %109, align 1, !tbaa !34
  br label %111

111:                                              ; preds = %99
  %112 = load i32, ptr %12, align 4, !tbaa !11
  %113 = add nsw i32 %112, 1
  store i32 %113, ptr %12, align 4, !tbaa !11
  br label %95, !llvm.loop !141

114:                                              ; preds = %95
  %115 = load i32, ptr %10, align 4, !tbaa !11
  %116 = sub nsw i32 %115, 1
  store i32 %116, ptr %13, align 4, !tbaa !11
  br label %117

117:                                              ; preds = %173, %114
  %118 = load i32, ptr %13, align 4, !tbaa !11
  %119 = icmp sge i32 %118, 0
  br i1 %119, label %120, label %176

120:                                              ; preds = %117
  %121 = load ptr, ptr %8, align 8, !tbaa !139
  %122 = load i32, ptr %13, align 4, !tbaa !11
  %123 = sext i32 %122 to i64
  %124 = getelementptr inbounds i64, ptr %121, i64 %123
  %125 = load i64, ptr %124, align 8, !tbaa !35
  %126 = trunc i64 %125 to i32
  store i32 %126, ptr %14, align 4, !tbaa !11
  store i32 60, ptr %12, align 4, !tbaa !11
  br label %127

127:                                              ; preds = %169, %120
  %128 = load i32, ptr %12, align 4, !tbaa !11
  %129 = icmp sge i32 %128, 0
  br i1 %129, label %130, label %172

130:                                              ; preds = %127
  %131 = load i32, ptr %14, align 4, !tbaa !11
  %132 = load i32, ptr %12, align 4, !tbaa !11
  %133 = add nsw i32 %132, 3
  %134 = lshr i32 %131, %133
  %135 = and i32 %134, 1
  %136 = add i32 48, %135
  %137 = trunc i32 %136 to i8
  %138 = load ptr, ptr %15, align 8, !tbaa !6
  %139 = getelementptr inbounds i8, ptr %138, i64 0
  store i8 %137, ptr %139, align 1, !tbaa !34
  %140 = load i32, ptr %14, align 4, !tbaa !11
  %141 = load i32, ptr %12, align 4, !tbaa !11
  %142 = add nsw i32 %141, 2
  %143 = lshr i32 %140, %142
  %144 = and i32 %143, 1
  %145 = add i32 48, %144
  %146 = trunc i32 %145 to i8
  %147 = load ptr, ptr %15, align 8, !tbaa !6
  %148 = getelementptr inbounds i8, ptr %147, i64 1
  store i8 %146, ptr %148, align 1, !tbaa !34
  %149 = load i32, ptr %14, align 4, !tbaa !11
  %150 = load i32, ptr %12, align 4, !tbaa !11
  %151 = add nsw i32 %150, 1
  %152 = lshr i32 %149, %151
  %153 = and i32 %152, 1
  %154 = add i32 48, %153
  %155 = trunc i32 %154 to i8
  %156 = load ptr, ptr %15, align 8, !tbaa !6
  %157 = getelementptr inbounds i8, ptr %156, i64 2
  store i8 %155, ptr %157, align 1, !tbaa !34
  %158 = load i32, ptr %14, align 4, !tbaa !11
  %159 = load i32, ptr %12, align 4, !tbaa !11
  %160 = add nsw i32 %159, 0
  %161 = lshr i32 %158, %160
  %162 = and i32 %161, 1
  %163 = add i32 48, %162
  %164 = trunc i32 %163 to i8
  %165 = load ptr, ptr %15, align 8, !tbaa !6
  %166 = getelementptr inbounds i8, ptr %165, i64 3
  store i8 %164, ptr %166, align 1, !tbaa !34
  %167 = load ptr, ptr %15, align 8, !tbaa !6
  %168 = getelementptr inbounds i8, ptr %167, i64 4
  store ptr %168, ptr %15, align 8, !tbaa !6
  br label %169

169:                                              ; preds = %130
  %170 = load i32, ptr %12, align 4, !tbaa !11
  %171 = sub nsw i32 %170, 4
  store i32 %171, ptr %12, align 4, !tbaa !11
  br label %127, !llvm.loop !142

172:                                              ; preds = %127
  br label %173

173:                                              ; preds = %172
  %174 = load i32, ptr %13, align 4, !tbaa !11
  %175 = add nsw i32 %174, -1
  store i32 %175, ptr %13, align 4, !tbaa !11
  br label %117, !llvm.loop !143

176:                                              ; preds = %117
  %177 = load ptr, ptr %5, align 8, !tbaa !50
  %178 = load i32, ptr %6, align 4, !tbaa !11
  %179 = load ptr, ptr %9, align 8, !tbaa !13
  %180 = getelementptr inbounds nuw %struct.fstWriterContext, ptr %179, i32 0, i32 10
  %181 = load ptr, ptr %180, align 8, !tbaa !60
  call void @fstWriterEmitValueChange(ptr noundef %177, i32 noundef %178, ptr noundef %181)
  call void @llvm.lifetime.end.p0(i64 8, ptr %15) #15
  call void @llvm.lifetime.end.p0(i64 4, ptr %14) #15
  call void @llvm.lifetime.end.p0(i64 4, ptr %13) #15
  call void @llvm.lifetime.end.p0(i64 4, ptr %12) #15
  call void @llvm.lifetime.end.p0(i64 4, ptr %11) #15
  call void @llvm.lifetime.end.p0(i64 4, ptr %10) #15
  br label %182

182:                                              ; preds = %176, %31
  br label %183

183:                                              ; preds = %182, %24
  call void @llvm.lifetime.end.p0(i64 8, ptr %9) #15
  ret void
}