; Function Attrs: mustprogress nounwind uwtable
define void @fstWriterEmitValueChangeVec64(ptr noundef captures(address_is_null) %0, i32 noundef %1, i32 noundef %2, ptr noundef readonly captures(none) %3) local_unnamed_addr #0 {
  %5 = icmp ult i32 %2, 65
  br i1 %5, label %6, label %8, !prof !85

6:                                                ; preds = %4
  %7 = load i64, ptr %3, align 8, !tbaa !56
  tail call void @fstWriterEmitValueChange64(ptr noundef %0, i32 noundef %1, i32 noundef %2, i64 noundef %7)
  br label %72

8:                                                ; preds = %4
  %.not = icmp eq ptr %0, null
  br i1 %.not, label %72, label %9, !prof !85

9:                                                ; preds = %8
  %10 = lshr i32 %2, 6
  %11 = and i32 %2, 63
  %12 = getelementptr inbounds nuw i8, ptr %0, i64 88
  %13 = load i32, ptr %12, align 8, !tbaa !55
  %14 = icmp ugt i32 %2, %13
  br i1 %14, label %15, label %._crit_edge69, !prof !85

._crit_edge69:                                    ; preds = %9
  %.phi.trans.insert = getelementptr inbounds nuw i8, ptr %0, i64 80
  %.pre = load ptr, ptr %.phi.trans.insert, align 8, !tbaa !54
  br label %25

15:                                               ; preds = %9
  %16 = shl i32 %2, 1
  %17 = or disjoint i32 %16, 1
  store i32 %17, ptr %12, align 8, !tbaa !55
  %18 = getelementptr inbounds nuw i8, ptr %0, i64 80
  %19 = load ptr, ptr %18, align 8, !tbaa !54
  %20 = zext i32 %17 to i64
  %21 = tail call ptr @realloc(ptr noundef %19, i64 noundef %20) #45
  store ptr %21, ptr %18, align 8, !tbaa !54
  %.not57 = icmp eq ptr %21, null
  br i1 %.not57, label %22, label %25, !prof !85

22:                                               ; preds = %15
  %23 = load ptr, ptr @stderr, align 8, !tbaa !41
  %24 = tail call i64 @fwrite(ptr nonnull @.str.17, i64 73, i64 1, ptr %23) #44
  tail call void @exit(i32 noundef 255) #46
  unreachable

25:                                               ; preds = %._crit_edge69, %15
  %26 = phi ptr [ %.pre, %._crit_edge69 ], [ %21, %15 ]
  %27 = getelementptr inbounds nuw i8, ptr %0, i64 80
  %28 = zext nneg i32 %10 to i64
  %29 = getelementptr inbounds nuw i64, ptr %3, i64 %28
  %30 = load i64, ptr %29, align 8, !tbaa !56
  %31 = trunc i64 %30 to i32
  %.not66 = icmp eq i32 %11, 0
  br i1 %.not66, label %.lr.ph65.preheader, label %.lr.ph

.lr.ph65.preheader:                               ; preds = %.lr.ph, %25
  %.0.lcssa = phi ptr [ %26, %25 ], [ %40, %.lr.ph ]
  %32 = lshr i32 %2, 6
  %33 = zext nneg i32 %32 to i64
  br label %.lr.ph65

.lr.ph:                                           ; preds = %25, %.lr.ph
  %.059 = phi ptr [ %40, %.lr.ph ], [ %26, %25 ]
  %.05158 = phi i32 [ %41, %.lr.ph ], [ 0, %25 ]
  %34 = xor i32 %.05158, -1
  %35 = add nsw i32 %11, %34
  %36 = lshr i32 %31, %35
  %37 = trunc i32 %36 to i8
  %38 = and i8 %37, 1
  %39 = or disjoint i8 %38, 48
  %40 = getelementptr inbounds nuw i8, ptr %.059, i64 1
  store i8 %39, ptr %.059, align 1, !tbaa !6
  %41 = add nuw nsw i32 %.05158, 1
  %exitcond.not = icmp eq i32 %41, %11
  br i1 %exitcond.not, label %.lr.ph65.preheader, label %.lr.ph, !llvm.loop !119

.loopexit:                                        ; preds = %46
  %42 = icmp samesign ugt i64 %indvars.iv, 1
  br i1 %42, label %.lr.ph65, label %._crit_edge, !llvm.loop !120

.lr.ph65:                                         ; preds = %.lr.ph65.preheader, %.loopexit
  %indvars.iv = phi i64 [ %33, %.lr.ph65.preheader ], [ %indvars.iv.next, %.loopexit ]
  %.163 = phi ptr [ %.0.lcssa, %.lr.ph65.preheader ], [ %69, %.loopexit ]
  %indvars.iv.next = add nsw i64 %indvars.iv, -1
  %43 = getelementptr inbounds nuw i64, ptr %3, i64 %indvars.iv.next
  %44 = load i64, ptr %43, align 8, !tbaa !56
  %45 = trunc i64 %44 to i32
  br label %46

46:                                               ; preds = %.lr.ph65, %46
  %.261 = phi ptr [ %.163, %.lr.ph65 ], [ %69, %46 ]
  %.15260 = phi i32 [ 60, %.lr.ph65 ], [ %70, %46 ]
  %47 = or disjoint i32 %.15260, 3
  %48 = lshr i32 %45, %47
  %49 = trunc i32 %48 to i8
  %50 = and i8 %49, 1
  %51 = or disjoint i8 %50, 48
  store i8 %51, ptr %.261, align 1, !tbaa !6
  %52 = or disjoint i32 %.15260, 2
  %53 = lshr i32 %45, %52
  %54 = trunc i32 %53 to i8
  %55 = and i8 %54, 1
  %56 = or disjoint i8 %55, 48
  %57 = getelementptr inbounds nuw i8, ptr %.261, i64 1
  store i8 %56, ptr %57, align 1, !tbaa !6
  %58 = or disjoint i32 %.15260, 1
  %59 = lshr i32 %45, %58
  %60 = trunc i32 %59 to i8
  %61 = and i8 %60, 1
  %62 = or disjoint i8 %61, 48
  %63 = getelementptr inbounds nuw i8, ptr %.261, i64 2
  store i8 %62, ptr %63, align 1, !tbaa !6
  %64 = lshr i32 %45, %.15260
  %65 = trunc i32 %64 to i8
  %66 = and i8 %65, 1
  %67 = or disjoint i8 %66, 48
  %68 = getelementptr inbounds nuw i8, ptr %.261, i64 3
  store i8 %67, ptr %68, align 1, !tbaa !6
  %69 = getelementptr inbounds nuw i8, ptr %.261, i64 4
  %70 = add nsw i32 %.15260, -4
  %.not70 = icmp eq i32 %.15260, 0
  br i1 %.not70, label %.loopexit, label %46, !llvm.loop !121

._crit_edge:                                      ; preds = %.loopexit
  %71 = load ptr, ptr %27, align 8, !tbaa !54
  tail call void @fstWriterEmitValueChange(ptr noundef nonnull %0, i32 noundef %1, ptr noundef %71)
  br label %72

72:                                               ; preds = %8, %._crit_edge, %6
  ret void
}